Certificate:
    Data:
        Version: 3 (0x2)
        Serial Number: 8 (0x8)
        Signature Algorithm: sha256WithRSAEncryption
        Issuer: CN=Root CA Test
        Validity
            Not Before: Mar 24 11:56:15 2024 GMT
            Not After : Mar 25 11:56:15 2074 GMT
        Subject: CN=User Test
        Subject Public Key Info:
            Public Key Algorithm: rsaEncryption
                Public-Key: (2048 bit)
                Modulus:
                    00:93:07:8f:d6:ca:74:67:86:b8:d8:6e:50:37:10:
                    81:47:04:60:7e:f4:c9:c4:52:23:78:58:bf:15:2e:
                    75:09:6b:ee:c7:67:5d:2e:de:05:c5:0a:7e:ba:9d:
                    b0:df:5c:11:ae:86:6e:c6:e5:93:d0:2b:1f:88:68:
                    bf:1b:22:8e:d3:01:ef:03:dd:93:ea:c7:b6:5a:19:
                    bf:79:46:a8:af:03:75:33:50:66:6a:ef:f8:03:cb:
                    a2:bc:a9:16:2a:bf:24:e4:06:23:3d:05:0f:1f:e6:
                    0e:d8:87:4e:43:4a:d5:9f:7a:e7:0c:47:33:f5:a7:
                    33:56:de:7b:bf:43:a0:da:5e:3d:ce:cf:6c:4f:49:
                    dd:76:f9:af:91:c9:88:1e:18:f3:88:90:c7:62:e7:
                    0d:21:b0:af:a6:c9:d1:b6:6b:90:18:2d:c7:a4:0c:
                    34:2e:27:6e:10:d3:07:68:9d:ab:b7:54:4f:35:47:
                    03:b1:8c:f5:42:f7:71:60:a2:77:df:41:6d:ad:59:
                    9a:4d:3c:ea:d8:e0:92:50:b5:a6:5b:31:6c:ce:9e:
                    a8:85:71:fe:9f:ae:5e:59:f0:7e:f7:5c:fe:8f:dd:
                    fa:19:b2:93:f9:ba:1c:4f:10:c1:eb:e2:c3:51:15:
                    f5:f2:06:ca:93:ea:99:c1:c6:2a:46:5c:57:ac:24:
                    cd:df
                Exponent: 65537 (0x10001)
        X509v3 extensions:
            X509v3 Subject Key Identifier: 
                C3:CA:F3:B4:40:0F:2F:0A:5E:8E:E6:44:E2:E1:8F:FA:61:EE:44:97
            X509v3 Authority Key Identifier: 
                7D:21:39:C0:66:EA:C7:D5:72:B6:12:96:F3:3D:1F:13:EB:3D:A7:69
            Authority Information Access: 
                OCSP - URI:http://localhost/ocsp/
                CA Issuers - URI:http://localhost/ca/RootCATest.crt
            X509v3 CRL Distribution Points: 
                Full Name:
                  URI:http://localhost/crl/RootCATest.crl
            X509v3 Key Usage: 
                Digital Signature, Non Repudiation, Key Encipherment
            X509v3 Extended Key Usage: 
                TLS Web Client Authentication, Code Signing, Microsoft Encrypted File System
            X509v3 Basic Constraints: critical
                CA:FALSE
    Signature Algorithm: sha256WithRSAEncryption
    Signature Value:
        a5:a6:13:df:88:f8:63:0f:de:2b:e7:25:d4:af:bb:ea:a6:c6:
        45:4a:93:d2:e1:3e:59:9c:aa:f0:32:a8:e4:ad:e4:8e:7e:f4:
        fd:a1:9f:ec:17:1b:ad:66:6e:26:a2:82:4c:86:b3:b7:54:8e:
        a6:20:6e:cf:3a:da:00:20:24:b5:11:9f:b8:35:61:3f:f7:a9:
        3f:e8:28:df:4a:02:32:fe:6f:84:aa:07:6d:72:26:93:9d:bb:
        80:4a:95:f6:25:f3:7f:20:a5:f2:0b:c9:1e:e8:e0:35:01:54:
        46:41:4b:e5:75:3d:85:44:70:02:a3:9c:22:23:73:b7:0e:c6:
        34:11:1c:8f:1f:94:cb:12:2d:d7:8d:1e:eb:81:54:06:b3:94:
        dc:56:03:2e:36:87:43:79:1d:a0:a9:c9:73:57:46:dd:cf:61:
        f3:92:98:e0:08:83:99:4e:58:e5:0e:1e:09:7f:7a:2d:74:64:
        8e:1c:c1:87:49:81:ee:05:c8:78:9e:6d:53:bd:b7:ae:e0:14:
        bb:32:d5:df:0c:7d:5a:a7:48:78:34:6d:9d:66:e5:cc:2c:9f:
        fe:dc:89:3a:94:f6:18:e5:be:e6:ed:6d:ec:3a:5f:97:e1:37:
        02:3a:1e:92:9d:d0:63:c1:55:10:51:d7:a4:29:d7:b6:91:1f:
        86:90:ac:05:ab:bf:cd:9d:6c:cf:68:df:12:c8:52:e0:7a:dd:
        42:a4:88:71:ca:6e:a4:f3:e6:16:86:7f:84:bf:92:92:11:52:
        43:a5:f3:07:f6:31:73:c4:10:4b:4f:b4:d3:de:41:b1:13:e8:
        a5:4c:31:9b:b8:2e:1b:bd:3c:8b:c4:61:66:bb:37:71:97:e7:
        1a:14:dd:a1:4b:e1:f4:85:cd:ff:44:45:d9:fd:36:35:75:17:
        18:f1:37:2a:19:cc:d4:a3:2a:00:0f:76:0a:63:6f:80:42:44:
        0b:9f:1d:d0:ed:47:80:0f:6a:99:98:14:49:0a:46:e8:f3:5d:
        68:c9:53:7e:a9:e4:43:1d:ea:26:ec:e5:6f:67:c3:2e:f3:df:
        97:69:f9:c8:84:a2:a4:71:de:f3:8a:cc:78:23:a1:3e:e1:ec:
        9b:66:45:06:0e:d2:d2:d6:36:d0:c4:8b:3c:70:5b:3a:68:d3:
        7a:1c:c7:60:27:02:10:82:ee:e8:03:3a:83:ba:35:31:b5:23:
        5c:cf:bb:45:18:a2:d0:1e:10:0f:25:22:83:58:ad:7b:7b:4d:
        13:bd:d9:71:fc:ab:a2:8a:f8:29:da:16:86:33:27:a7:59:d4:
        87:5b:95:9c:e9:08:14:e9:c6:a1:65:83:51:7c:ed:4a:3d:68:
        7e:3f:c1:1b:47:29:12:0a
-----BEGIN CERTIFICATE-----
MIIEzjCCAragAwIBAgIBCDANBgkqhkiG9w0BAQsFADAXMRUwEwYDVQQDEwxSb290
IENBIFRlc3QwIBcNMjQwMzI0MTE1NjE1WhgPMjA3NDAzMjUxMTU2MTVaMBQxEjAQ
BgNVBAMTCVVzZXIgVGVzdDCCASIwDQYJKoZIhvcNAQEBBQADggEPADCCAQoCggEB
AJMHj9bKdGeGuNhuUDcQgUcEYH70ycRSI3hYvxUudQlr7sdnXS7eBcUKfrqdsN9c
Ea6Gbsblk9ArH4hovxsijtMB7wPdk+rHtloZv3lGqK8DdTNQZmrv+APLorypFiq/
JOQGIz0FDx/mDtiHTkNK1Z965wxHM/WnM1bee79DoNpePc7PbE9J3Xb5r5HJiB4Y
84iQx2LnDSGwr6bJ0bZrkBgtx6QMNC4nbhDTB2idq7dUTzVHA7GM9UL3cWCid99B
ba1Zmk086tjgklC1plsxbM6eqIVx/p+uXlnwfvdc/o/d+hmyk/m6HE8Qweviw1EV
9fIGypPqmcHGKkZcV6wkzd8CAwEAAaOCASQwggEgMB0GA1UdDgQWBBTDyvO0QA8v
Cl6O5kTi4Y/6Ye5ElzAfBgNVHSMEGDAWgBR9ITnAZurH1XK2EpbzPR8T6z2naTBi
BggrBgEFBQcBAQRWMFQwIgYIKwYBBQUHMAGGFmh0dHA6Ly9sb2NhbGhvc3Qvb2Nz
cC8wLgYIKwYBBQUHMAKGImh0dHA6Ly9sb2NhbGhvc3QvY2EvUm9vdENBVGVzdC5j
cnQwNAYDVR0fBC0wKzApoCegJYYjaHR0cDovL2xvY2FsaG9zdC9jcmwvUm9vdENB
VGVzdC5jcmwwCwYDVR0PBAQDAgXgMCkGA1UdJQQiMCAGCCsGAQUFBwMCBggrBgEF
BQcDAwYKKwYBBAGCNwoDBDAMBgNVHRMBAf8EAjAAMA0GCSqGSIb3DQEBCwUAA4IC
AQClphPfiPhjD94r5yXUr7vqpsZFSpPS4T5ZnKrwMqjkreSOfvT9oZ/sFxutZm4m
ooJMhrO3VI6mIG7POtoAICS1EZ+4NWE/96k/6CjfSgIy/m+EqgdtciaTnbuASpX2
JfN/IKXyC8ke6OA1AVRGQUvldT2FRHACo5wiI3O3DsY0ERyPH5TLEi3XjR7rgVQG
s5TcVgMuNodDeR2gqclzV0bdz2HzkpjgCIOZTljlDh4Jf3otdGSOHMGHSYHuBch4
nm1Tvbeu4BS7MtXfDH1ap0h4NG2dZuXMLJ/+3Ik6lPYY5b7m7W3sOl+X4TcCOh6S
ndBjwVUQUdekKde2kR+GkKwFq7/NnWzPaN8SyFLget1CpIhxym6k8+YWhn+Ev5KS
EVJDpfMH9jFzxBBLT7TT3kGxE+ilTDGbuC4bvTyLxGFmuzdxl+caFN2hS+H0hc3/
REXZ/TY1dRcY8TcqGczUoyoAD3YKY2+AQkQLnx3Q7UeAD2qZmBRJCkbo811oyVN+
qeRDHeom7OVvZ8Mu89+XafnIhKKkcd7zisx4I6E+4eybZkUGDtLS1jbQxIs8cFs6
aNN6HMdgJwIQgu7oAzqDujUxtSNcz7tFGKLQHhAPJSKDWK17e00Tvdlx/Kuiivgp
2haGMyenWdSHW5Wc6QgU6cahZYNRfO1KPWh+P8EbRykSCg==
-----END CERTIFICATE-----
-----BEGIN PRIVATE KEY-----
MIIEvAIBADANBgkqhkiG9w0BAQEFAASCBKYwggSiAgEAAoIBAQCTB4/WynRnhrjY
blA3EIFHBGB+9MnEUiN4WL8VLnUJa+7HZ10u3gXFCn66nbDfXBGuhm7G5ZPQKx+I
aL8bIo7TAe8D3ZPqx7ZaGb95RqivA3UzUGZq7/gDy6K8qRYqvyTkBiM9BQ8f5g7Y
h05DStWfeucMRzP1pzNW3nu/Q6DaXj3Oz2xPSd12+a+RyYgeGPOIkMdi5w0hsK+m
ydG2a5AYLcekDDQuJ24Q0wdonau3VE81RwOxjPVC93FgonffQW2tWZpNPOrY4JJQ
taZbMWzOnqiFcf6frl5Z8H73XP6P3foZspP5uhxPEMHr4sNRFfXyBsqT6pnBxipG
XFesJM3fAgMBAAECggEAAwlZcaStwcOZBrNEidaX7OkMuyKAFkNiAybGD4Btn1uw
y0J5vLGOKfMdCeqe0AYdQV76Y7YzFs4FMTKEm+FbVMVJ8+j8GJG2VOcKOs14R2EJ
Zx1meBfrpdxrSH0vfYOEFgeAa86ycMS2Ese8mIwvnEMUCX9g9dZVq5odsSYK6OeY
U+cLbRieMxXF+t+5aYufnOBJj09OMiV17F4hdsao9tFH4s/kq4eUCa+xuycsRBbH
IajXWdWDcKxCjywNzeSWYdGKjvW0uxtpP9YnDbr3zoRNdg/YhVxdJRsW7iah79dr
y9pFz0Lm7R/iqEDccis2+7E/lVrOBSGgbsUyALrM2QKBgQDPuvgj5M9GeMrcx8/s
LtEvP0LhDCkAFhlkP+6dd2UEODsrwPjTePJMdfHkZmoP36mstn/TMxY7totTZYIe
AG9qeXNlMBOlV1zfAhDYUenMqxmdvSipdMruyCNumXaejxKH139E2DdMNrTbkQLP
MNIvjQ7dT4zEe/cqbjEV0leIdwKBgQC1Mb/EdvQmgt6Ff2pgZj3/A6AXx8dRVWuX
Fwd+mHcJ8LwZLJkaRJ9qLzcdvdiNs7jHS26TYXTgSW3eugqCi56b81KbiFppYhcp
YLmhhB8kigMzwbP91zdRaFXOByrr4GJaeEf9OidUG/z+QT4zq9Gx/CQ6UmJNMvYj
nHioeRgn2QKBgHWOeZ7WffaDpUoMSb5/QCJcypxRJWLHHtd81qyGRMR+jf3U1vvW
Fkju9lUrIBqbmIoFPZFn980TIQWxDFGuLV80G/nHm1aWehg6Mw44TPdmXLjHs5sy
XSWEXYjZkCdrEDGP4pYzRhf7XZ5kEhLurgP6786OljsbbGS2t1CCGMdBAoGAS2aQ
bqkxoHUFNHh5Q/RICD7x9/Niti3dv9oNfFjl8HUFUVSFwbCcxgsv3GiMHSuU0RpK
wXnksRDdb7nrdbe0ISF4VtC/DuuKx+VAWj4o14O3IWqSBCfzFSVdz4acDdwqEYvM
KUxx4UZkWUm9ILN3Z6GNUdfGoGl8lAUhELqTmsECgYA8yBurgrAel7FbzYicFHHU
/p9d2Sm71b26ole7HmFuG5f2Jgg6t6DHevkLdr/bjiGP8zfWN7mk9rBAHCOcTpx+
PhN01x8kAKwDZ+pNb/wmloM5FbTvylvlJw7GRfbS2Ekn1M43VmA/zn+4FHFGT90k
oA+p6MggIZ97DBujDx/ffg==
-----END PRIVATE KEY-----
